; Function Attrs: mustprogress nofree norecurse nosync nounwind willreturn memory(argmem: write) uwtable
define hidden void @_ZN19OpenColorIO_v2_5dev12RenderParams8setSlopeEfff(ptr noundef nonnull writeonly align 4 captures(none) dereferenceable(54) initializes((0, 16)) %0, float noundef %1, float noundef %2, float noundef %3) local_unnamed_addr #3 align 2 {
  store float %1, ptr %0, align 4, !tbaa !10
  %5 = getelementptr inbounds nuw i8, ptr %0, i64 4
  store float %2, ptr %5, align 4, !tbaa !10
  %6 = getelementptr inbounds nuw i8, ptr %0, i64 8
  store float %3, ptr %6, align 4, !tbaa !10
  %7 = getelementptr inbounds nuw i8, ptr %0, i64 12
  store float 1.000000e+00, ptr %7, align 4, !tbaa !10
  ret void
}